; Function Attrs: mustprogress nounwind uwtable
define internal noundef zeroext i1 @_ZNK12_GLOBAL__N_124ParsedAttrInfoConsumable20diagAppertainsToDeclERN5clang4SemaERKNS1_10ParsedAttrEPKNS1_4DeclE(ptr nocapture nonnull readnone align 8 %0, ptr noundef nonnull align 8 dereferenceable(17560) %1, ptr noundef nonnull align 8 dereferenceable(72) %2, ptr nocapture noundef readonly %3) unnamed_addr #0 align 2 {
  %5 = alloca %"class.clang::SemaBase::SemaDiagnosticBuilder", align 8
  %6 = alloca i8, align 1
  %7 = getelementptr inbounds nuw i8, ptr %3, i64 28
  %8 = load i32, ptr %7, align 4
  %9 = and i32 %8, 127
  %10 = add nsw i32 %9, -56
  %11 = icmp ult i32 %10, 3
  br i1 %11, label %23, label %12

12:                                               ; preds = %4
  %13 = getelementptr inbounds i8, ptr %1, i64 8
  %14 = getelementptr inbounds nuw i8, ptr %2, i64 16
  %.sroa.0.0.copyload.i.i = load i32, ptr %14, align 8
  call void @_ZN5clang8SemaBase4DiagENS_14SourceLocationEjb(ptr dead_on_unwind nonnull writable sret(%"class.clang::SemaBase::SemaDiagnosticBuilder") align 8 %5, ptr noundef nonnull align 8 dereferenceable(8) %13, i32 %.sroa.0.0.copyload.i.i, i32 noundef 6180, i1 noundef zeroext false) #18
  %15 = call noundef nonnull align 8 dereferenceable(96) ptr @_ZN5clanglsINS_10ParsedAttrEEERKNS_8SemaBase21SemaDiagnosticBuilderES5_RKT_(ptr noundef nonnull align 8 dereferenceable(96) %5, ptr noundef nonnull align 8 dereferenceable(72) %2)
  %16 = getelementptr inbounds nuw i8, ptr %2, i64 28
  %17 = load i32, ptr %16, align 4
  %18 = lshr i32 %17, 25
  %19 = trunc nuw nsw i32 %18 to i8
  %20 = and i8 %19, 1
  store i8 %20, ptr %6, align 1
  %21 = call noundef nonnull align 8 dereferenceable(96) ptr @_ZNK5clang8SemaBase21SemaDiagnosticBuilderlsIbvEERKS1_OT_(ptr noundef nonnull align 8 dereferenceable(96) %15, ptr noundef nonnull align 1 dereferenceable(1) %6)
  %22 = call noundef nonnull align 8 dereferenceable(96) ptr @_ZN5clanglsIA8_cEERKNS_8SemaBase21SemaDiagnosticBuilderES5_RKT_(ptr noundef nonnull align 8 dereferenceable(96) %21, ptr noundef nonnull align 1 dereferenceable(8) @.str.1356)
  call void @_ZN5clang8SemaBase21SemaDiagnosticBuilderD1Ev(ptr noundef nonnull align 8 dereferenceable(96) %5) #18
  br label %23

23:                                               ; preds = %4, %12
  ret i1 %11
}